target datalayout = "e-m:e-p270:32:32-p271:32:32-p272:64:64-i64:64-i128:128-f80:128-n8:16:32:64-S128"
target triple = "x86_64-pc-linux-gnu"

%struct.gmx_enfrotgrp = type { ptr, i32, float, [3 x [3 x float]], %"class.std::unique_ptr", [3 x float], float, ptr, ptr, [3 x float], [3 x float], %"class.std::vector.5", ptr, ptr, ptr, ptr, ptr, ptr, ptr, ptr, ptr, float, float, float, float, ptr, ptr, ptr, i32, i32, i32, i32, i32, ptr, ptr, ptr, ptr, ptr, ptr, float, ptr, ptr, ptr, ptr, ptr }
%"class.std::unique_ptr" = type { %"struct.std::__uniq_ptr_data" }
%"struct.std::__uniq_ptr_data" = type { %"class.std::__uniq_ptr_impl" }
%"class.std::__uniq_ptr_impl" = type { %"class.std::tuple" }
%"class.std::tuple" = type { %"struct.std::_Tuple_impl" }
%"struct.std::_Tuple_impl" = type { %"struct.std::_Head_base.4" }
%"struct.std::_Head_base.4" = type { ptr }
%"class.std::vector.5" = type { %"struct.std::_Vector_base.6" }
%"struct.std::_Vector_base.6" = type { %"struct.std::_Vector_base<gmx::BasicVector<float>, std::allocator<gmx::BasicVector<float>>>::_Vector_impl" }
%"struct.std::_Vector_base<gmx::BasicVector<float>, std::allocator<gmx::BasicVector<float>>>::_Vector_impl" = type { %"struct.std::_Vector_base<gmx::BasicVector<float>, std::allocator<gmx::BasicVector<float>>>::_Vector_impl_data" }
%"struct.std::_Vector_base<gmx::BasicVector<float>, std::allocator<gmx::BasicVector<float>>>::_Vector_impl_data" = type { ptr, ptr, ptr }
%struct.t_rotgrp = type { i32, i8, i32, ptr, %"class.std::vector.5", [3 x float], float, float, [3 x float], i32, i32, float, float, float, float }

; Function Attrs: mustprogress nounwind uwtable
define linkonce_odr noundef float @_ZN3gmx6squareIfEET_S1_(float noundef %0) #2 comdat {
  %2 = alloca float, align 4
  store float %0, ptr %2, align 4, !tbaa !140
  %3 = load float, ptr %2, align 4, !tbaa !140
  %4 = load float, ptr %2, align 4, !tbaa !140
  %5 = fmul float %3, %4
  ret float %5
}

; Function Attrs: inlinehint mustprogress nounwind uwtable
define internal noundef float @_ZL9calc_betaPfPK13gmx_enfrotgrpi(ptr noundef %0, ptr noundef %1, i32 noundef %2) #10 {
  %4 = alloca ptr, align 8
  %5 = alloca ptr, align 8
  %6 = alloca i32, align 4
  store ptr %0, ptr %4, align 8, !tbaa !170
  store ptr %1, ptr %5, align 8, !tbaa !54
  store i32 %2, ptr %6, align 4, !tbaa !159
  %7 = load ptr, ptr %4, align 8, !tbaa !170
  %8 = load ptr, ptr %5, align 8, !tbaa !54
  %9 = getelementptr inbounds nuw %struct.gmx_enfrotgrp, ptr %8, i32 0, i32 5
  %10 = getelementptr inbounds [3 x float], ptr %9, i64 0, i64 0
  %11 = call noundef float @_ZL5iprodPKfS0_(ptr noundef %7, ptr noundef %10)
  %12 = load ptr, ptr %5, align 8, !tbaa !54
  %13 = getelementptr inbounds nuw %struct.gmx_enfrotgrp, ptr %12, i32 0, i32 0
  %14 = load ptr, ptr %13, align 8, !tbaa !191
  %15 = getelementptr inbounds nuw %struct.t_rotgrp, ptr %14, i32 0, i32 12
  %16 = load float, ptr %15, align 4, !tbaa !445
  %17 = load i32, ptr %6, align 4, !tbaa !159
  %18 = sitofp i32 %17 to float
  %19 = fneg float %16
  %20 = call float @llvm.fmuladd.f32(float %19, float %18, float %11)
  ret float %20
}

; Function Attrs: inlinehint mustprogress nounwind uwtable
define internal noundef i32 @_ZN3gmxL10roundToIntEf(float noundef %0) #10 {
  %2 = alloca float, align 4
  store float %0, ptr %2, align 4, !tbaa !140
  %3 = load float, ptr %2, align 4, !tbaa !140
  %4 = call float @llvm.rint.f32(float %3)
  %5 = fptosi float %4 to i32
  ret i32 %5
}

; Function Attrs: inlinehint mustprogress nounwind uwtable
define internal noundef float @_ZL5iprodPKfS0_(ptr noundef %0, ptr noundef %1) #10 {
  %3 = alloca ptr, align 8
  %4 = alloca ptr, align 8
  store ptr %0, ptr %3, align 8, !tbaa !170
  store ptr %1, ptr %4, align 8, !tbaa !170
  %5 = load ptr, ptr %3, align 8, !tbaa !170
  %6 = getelementptr inbounds float, ptr %5, i64 0
  %7 = load float, ptr %6, align 4, !tbaa !140
  %8 = load ptr, ptr %4, align 8, !tbaa !170
  %9 = getelementptr inbounds float, ptr %8, i64 0
  %10 = load float, ptr %9, align 4, !tbaa !140
  %11 = load ptr, ptr %3, align 8, !tbaa !170
  %12 = getelementptr inbounds float, ptr %11, i64 1
  %13 = load float, ptr %12, align 4, !tbaa !140
  %14 = load ptr, ptr %4, align 8, !tbaa !170
  %15 = getelementptr inbounds float, ptr %14, i64 1
  %16 = load float, ptr %15, align 4, !tbaa !140
  %17 = fmul float %13, %16
  %18 = call float @llvm.fmuladd.f32(float %7, float %10, float %17)
  %19 = load ptr, ptr %3, align 8, !tbaa !170
  %20 = getelementptr inbounds float, ptr %19, i64 2
  %21 = load float, ptr %20, align 4, !tbaa !140
  %22 = load ptr, ptr %4, align 8, !tbaa !170
  %23 = getelementptr inbounds float, ptr %22, i64 2
  %24 = load float, ptr %23, align 4, !tbaa !140
  %25 = call float @llvm.fmuladd.f32(float %21, float %24, float %18)
  ret float %25
}

; Function Attrs: inlinehint mustprogress uwtable
define internal noundef float @_ZL15gaussian_weightPfPK13gmx_enfrotgrpi(ptr noundef %0, ptr noundef %1, i32 noundef %2) #7 {
  %4 = alloca ptr, align 8
  %5 = alloca ptr, align 8
  %6 = alloca i32, align 4
  %7 = alloca float, align 4
  %8 = alloca float, align 4
  store ptr %0, ptr %4, align 8, !tbaa !170
  store ptr %1, ptr %5, align 8, !tbaa !54
  store i32 %2, ptr %6, align 4, !tbaa !159
  call void @llvm.lifetime.start.p0(i64 4, ptr %7) #4
  store float 0x3FE23CC3C0000000, ptr %7, align 4, !tbaa !140
  call void @llvm.lifetime.start.p0(i64 4, ptr %8) #4
  %9 = load ptr, ptr %5, align 8, !tbaa !54
  %10 = getelementptr inbounds nuw %struct.gmx_enfrotgrp, ptr %9, i32 0, i32 0
  %11 = load ptr, ptr %10, align 8, !tbaa !191
  %12 = getelementptr inbounds nuw %struct.t_rotgrp, ptr %11, i32 0, i32 12
  %13 = load float, ptr %12, align 4, !tbaa !445
  %14 = fpext float %13 to double
  %15 = fmul double 0x3FE6666666666666, %14
  %16 = fptrunc double %15 to float
  store float %16, ptr %8, align 4, !tbaa !140
  %17 = load ptr, ptr %4, align 8, !tbaa !170
  %18 = load ptr, ptr %5, align 8, !tbaa !54
  %19 = load i32, ptr %6, align 4, !tbaa !159
  %20 = call noundef float @_ZL9calc_betaPfPK13gmx_enfrotgrpi(ptr noundef %17, ptr noundef %18, i32 noundef %19)
  %21 = load float, ptr %8, align 4, !tbaa !140
  %22 = fdiv float %20, %21
  %23 = call noundef float @_ZN3gmx6squareIfEET_S1_(float noundef %22)
  %24 = fpext float %23 to double
  %25 = fmul double -5.000000e-01, %24
  %26 = call double @exp(double noundef %25) #4, !tbaa !159
  %27 = fmul double 0x3FE23CC3C0000000, %26
  %28 = fptrunc double %27 to float
  call void @llvm.lifetime.end.p0(i64 4, ptr %8) #4
  call void @llvm.lifetime.end.p0(i64 4, ptr %7) #4
  ret float %28
}

; Function Attrs: inlinehint mustprogress uwtable
define internal noundef i32 @_ZL12get_homeslabPfPKff(ptr noundef %0, ptr noundef %1, float noundef %2) #7 {
  %4 = alloca ptr, align 8
  %5 = alloca ptr, align 8
  %6 = alloca float, align 4
  %7 = alloca float, align 4
  store ptr %0, ptr %4, align 8, !tbaa !170
  store ptr %1, ptr %5, align 8, !tbaa !170
  store float %2, ptr %6, align 4, !tbaa !140
  call void @llvm.lifetime.start.p0(i64 4, ptr %7) #4
  %8 = load ptr, ptr %5, align 8, !tbaa !170
  %9 = load ptr, ptr %4, align 8, !tbaa !170
  %10 = call noundef float @_ZL5iprodPKfS0_(ptr noundef %8, ptr noundef %9)
  store float %10, ptr %7, align 4, !tbaa !140
  %11 = load float, ptr %7, align 4, !tbaa !140
  %12 = load float, ptr %6, align 4, !tbaa !140
  %13 = fdiv float %11, %12
  %14 = call noundef i32 @_ZN3gmxL10roundToIntEf(float noundef %13)
  call void @llvm.lifetime.end.p0(i64 4, ptr %7) #4
  ret i32 %14
}

; Function Attrs: mustprogress uwtable
define internal noundef i32 @_ZL25get_single_atom_gaussiansPfP13gmx_enfrotgrp(ptr noundef %0, ptr noundef %1) #3 {
  %3 = alloca ptr, align 8
  %4 = alloca ptr, align 8
  %5 = alloca i32, align 4
  %6 = alloca float, align 4
  %7 = alloca i32, align 4
  %8 = alloca i32, align 4
  store ptr %0, ptr %3, align 8, !tbaa !170
  store ptr %1, ptr %4, align 8, !tbaa !54
  call void @llvm.lifetime.start.p0(i64 4, ptr %5) #4
  %9 = load ptr, ptr %3, align 8, !tbaa !170
  %10 = load ptr, ptr %4, align 8, !tbaa !54
  %11 = getelementptr inbounds nuw %struct.gmx_enfrotgrp, ptr %10, i32 0, i32 5
  %12 = getelementptr inbounds [3 x float], ptr %11, i64 0, i64 0
  %13 = load ptr, ptr %4, align 8, !tbaa !54
  %14 = getelementptr inbounds nuw %struct.gmx_enfrotgrp, ptr %13, i32 0, i32 0
  %15 = load ptr, ptr %14, align 8, !tbaa !191
  %16 = getelementptr inbounds nuw %struct.t_rotgrp, ptr %15, i32 0, i32 12
  %17 = load float, ptr %16, align 4, !tbaa !445
  %18 = call noundef i32 @_ZL12get_homeslabPfPKff(ptr noundef %9, ptr noundef %12, float noundef %17)
  store i32 %18, ptr %5, align 4, !tbaa !159
  call void @llvm.lifetime.start.p0(i64 4, ptr %6) #4
  %19 = load ptr, ptr %3, align 8, !tbaa !170
  %20 = load ptr, ptr %4, align 8, !tbaa !54
  %21 = load i32, ptr %5, align 4, !tbaa !159
  %22 = call noundef float @_ZL15gaussian_weightPfPK13gmx_enfrotgrpi(ptr noundef %19, ptr noundef %20, i32 noundef %21)
  store float %22, ptr %6, align 4, !tbaa !140
  call void @llvm.lifetime.start.p0(i64 4, ptr %7) #4
  store i32 0, ptr %7, align 4, !tbaa !159
  %23 = load float, ptr %6, align 4, !tbaa !140
  %24 = load ptr, ptr %4, align 8, !tbaa !54
  %25 = getelementptr inbounds nuw %struct.gmx_enfrotgrp, ptr %24, i32 0, i32 40
  %26 = load ptr, ptr %25, align 8, !tbaa !698
  %27 = load i32, ptr %7, align 4, !tbaa !159
  %28 = sext i32 %27 to i64
  %29 = getelementptr inbounds float, ptr %26, i64 %28
  store float %23, ptr %29, align 4, !tbaa !140
  %30 = load i32, ptr %5, align 4, !tbaa !159
  %31 = load ptr, ptr %4, align 8, !tbaa !54
  %32 = getelementptr inbounds nuw %struct.gmx_enfrotgrp, ptr %31, i32 0, i32 41
  %33 = load ptr, ptr %32, align 8, !tbaa !697
  %34 = load i32, ptr %7, align 4, !tbaa !159
  %35 = sext i32 %34 to i64
  %36 = getelementptr inbounds i32, ptr %33, i64 %35
  store i32 %30, ptr %36, align 4, !tbaa !159
  %37 = load i32, ptr %7, align 4, !tbaa !159
  %38 = add nsw i32 %37, 1
  store i32 %38, ptr %7, align 4, !tbaa !159
  call void @llvm.lifetime.start.p0(i64 4, ptr %8) #4
  %39 = load i32, ptr %5, align 4, !tbaa !159
  store i32 %39, ptr %8, align 4, !tbaa !159
  br label %40

40:                                               ; preds = %48, %2
  %41 = load float, ptr %6, align 4, !tbaa !140
  %42 = load ptr, ptr %4, align 8, !tbaa !54
  %43 = getelementptr inbounds nuw %struct.gmx_enfrotgrp, ptr %42, i32 0, i32 0
  %44 = load ptr, ptr %43, align 8, !tbaa !191
  %45 = getelementptr inbounds nuw %struct.t_rotgrp, ptr %44, i32 0, i32 13
  %46 = load float, ptr %45, align 8, !tbaa !219
  %47 = fcmp ogt float %41, %46
  br i1 %47, label %48, label %71

48:                                               ; preds = %40
  %49 = load i32, ptr %8, align 4, !tbaa !159
  %50 = add nsw i32 %49, 1
  store i32 %50, ptr %8, align 4, !tbaa !159
  %51 = load ptr, ptr %3, align 8, !tbaa !170
  %52 = load ptr, ptr %4, align 8, !tbaa !54
  %53 = load i32, ptr %8, align 4, !tbaa !159
  %54 = call noundef float @_ZL15gaussian_weightPfPK13gmx_enfrotgrpi(ptr noundef %51, ptr noundef %52, i32 noundef %53)
  store float %54, ptr %6, align 4, !tbaa !140
  %55 = load i32, ptr %8, align 4, !tbaa !159
  %56 = load ptr, ptr %4, align 8, !tbaa !54
  %57 = getelementptr inbounds nuw %struct.gmx_enfrotgrp, ptr %56, i32 0, i32 41
  %58 = load ptr, ptr %57, align 8, !tbaa !697
  %59 = load i32, ptr %7, align 4, !tbaa !159
  %60 = sext i32 %59 to i64
  %61 = getelementptr inbounds i32, ptr %58, i64 %60
  store i32 %55, ptr %61, align 4, !tbaa !159
  %62 = load float, ptr %6, align 4, !tbaa !140
  %63 = load ptr, ptr %4, align 8, !tbaa !54
  %64 = getelementptr inbounds nuw %struct.gmx_enfrotgrp, ptr %63, i32 0, i32 40
  %65 = load ptr, ptr %64, align 8, !tbaa !698
  %66 = load i32, ptr %7, align 4, !tbaa !159
  %67 = sext i32 %66 to i64
  %68 = getelementptr inbounds float, ptr %65, i64 %67
  store float %62, ptr %68, align 4, !tbaa !140
  %69 = load i32, ptr %7, align 4, !tbaa !159
  %70 = add nsw i32 %69, 1
  store i32 %70, ptr %7, align 4, !tbaa !159
  br label %40, !llvm.loop !741

71:                                               ; preds = %40
  %72 = load i32, ptr %7, align 4, !tbaa !159
  %73 = add nsw i32 %72, -1
  store i32 %73, ptr %7, align 4, !tbaa !159
  %74 = load i32, ptr %5, align 4, !tbaa !159
  store i32 %74, ptr %8, align 4, !tbaa !159
  br label %75

75:                                               ; preds = %98, %71
  %76 = load i32, ptr %8, align 4, !tbaa !159
  %77 = add nsw i32 %76, -1
  store i32 %77, ptr %8, align 4, !tbaa !159
  %78 = load ptr, ptr %3, align 8, !tbaa !170
  %79 = load ptr, ptr %4, align 8, !tbaa !54
  %80 = load i32, ptr %8, align 4, !tbaa !159
  %81 = call noundef float @_ZL15gaussian_weightPfPK13gmx_enfrotgrpi(ptr noundef %78, ptr noundef %79, i32 noundef %80)
  store float %81, ptr %6, align 4, !tbaa !140
  %82 = load i32, ptr %8, align 4, !tbaa !159
  %83 = load ptr, ptr %4, align 8, !tbaa !54
  %84 = getelementptr inbounds nuw %struct.gmx_enfrotgrp, ptr %83, i32 0, i32 41
  %85 = load ptr, ptr %84, align 8, !tbaa !697
  %86 = load i32, ptr %7, align 4, !tbaa !159
  %87 = sext i32 %86 to i64
  %88 = getelementptr inbounds i32, ptr %85, i64 %87
  store i32 %82, ptr %88, align 4, !tbaa !159
  %89 = load float, ptr %6, align 4, !tbaa !140
  %90 = load ptr, ptr %4, align 8, !tbaa !54
  %91 = getelementptr inbounds nuw %struct.gmx_enfrotgrp, ptr %90, i32 0, i32 40
  %92 = load ptr, ptr %91, align 8, !tbaa !698
  %93 = load i32, ptr %7, align 4, !tbaa !159
  %94 = sext i32 %93 to i64
  %95 = getelementptr inbounds float, ptr %92, i64 %94
  store float %89, ptr %95, align 4, !tbaa !140
  %96 = load i32, ptr %7, align 4, !tbaa !159
  %97 = add nsw i32 %96, 1
  store i32 %97, ptr %7, align 4, !tbaa !159
  br label %98

98:                                               ; preds = %75
  %99 = load float, ptr %6, align 4, !tbaa !140
  %100 = load ptr, ptr %4, align 8, !tbaa !54
  %101 = getelementptr inbounds nuw %struct.gmx_enfrotgrp, ptr %100, i32 0, i32 0
  %102 = load ptr, ptr %101, align 8, !tbaa !191
  %103 = getelementptr inbounds nuw %struct.t_rotgrp, ptr %102, i32 0, i32 13
  %104 = load float, ptr %103, align 8, !tbaa !219
  %105 = fcmp ogt float %99, %104
  br i1 %105, label %75, label %106, !llvm.loop !742

106:                                              ; preds = %98
  %107 = load i32, ptr %7, align 4, !tbaa !159
  %108 = add nsw i32 %107, -1
  store i32 %108, ptr %7, align 4, !tbaa !159
  %109 = load i32, ptr %7, align 4, !tbaa !159
  call void @llvm.lifetime.end.p0(i64 4, ptr %8) #4
  call void @llvm.lifetime.end.p0(i64 4, ptr %7) #4
  call void @llvm.lifetime.end.p0(i64 4, ptr %6) #4
  call void @llvm.lifetime.end.p0(i64 4, ptr %5) #4
  ret i32 %109
}