; Function Attrs: mustprogress nofree nounwind memory(readwrite, inaccessiblemem: write) uwtable
define internal fastcc noundef i32 @_ZL25get_single_atom_gaussiansPfP13gmx_enfrotgrp(ptr noundef nonnull readonly captures(none) %0, ptr noundef nonnull readonly captures(none) %1) unnamed_addr #21 {
  %3 = getelementptr inbounds nuw i8, ptr %1, i64 64
  %4 = load ptr, ptr %1, align 8, !tbaa !84
  %5 = getelementptr inbounds nuw i8, ptr %4, i64 92
  %6 = load float, ptr %5, align 4, !tbaa !151
  %7 = load float, ptr %3, align 4, !tbaa !57
  %8 = load float, ptr %0, align 4, !tbaa !57
  %9 = getelementptr inbounds nuw i8, ptr %1, i64 68
  %10 = load float, ptr %9, align 4, !tbaa !57
  %11 = getelementptr inbounds nuw i8, ptr %0, i64 4
  %12 = load float, ptr %11, align 4, !tbaa !57
  %13 = fmul float %10, %12
  %14 = tail call float @llvm.fmuladd.f32(float %7, float %8, float %13)
  %15 = getelementptr inbounds nuw i8, ptr %1, i64 72
  %16 = load float, ptr %15, align 4, !tbaa !57
  %17 = getelementptr inbounds nuw i8, ptr %0, i64 8
  %18 = load float, ptr %17, align 4, !tbaa !57
  %19 = tail call noundef float @llvm.fmuladd.f32(float %16, float %18, float %14)
  %20 = fdiv float %19, %6
  %21 = tail call float @llvm.rint.f32(float %20)
  %22 = fptosi float %21 to i32
  %23 = fpext float %6 to double
  %24 = fmul double %23, 0x3FE6666666666666
  %25 = fptrunc double %24 to float
  %26 = sitofp i32 %22 to float
  %27 = fneg float %6
  %28 = tail call noundef float @llvm.fmuladd.f32(float %27, float %26, float %19)
  %29 = fdiv float %28, %25
  %30 = fmul float %29, %29
  %31 = fpext float %30 to double
  %32 = fmul double %31, -5.000000e-01
  %33 = tail call double @exp(double noundef %32) #26, !tbaa !56
  %34 = fmul double %33, 0x3FE23CC3C0000000
  %35 = fptrunc double %34 to float
  %36 = getelementptr inbounds nuw i8, ptr %1, i64 336
  %37 = load ptr, ptr %36, align 8, !tbaa !447
  store float %35, ptr %37, align 4, !tbaa !57
  %38 = getelementptr inbounds nuw i8, ptr %1, i64 344
  %39 = load ptr, ptr %38, align 8, !tbaa !446
  store i32 %22, ptr %39, align 4, !tbaa !56
  %40 = getelementptr inbounds nuw i8, ptr %4, i64 96
  %41 = load float, ptr %40, align 8, !tbaa !117
  %42 = fcmp olt float %41, %35
  br i1 %42, label %.lr.ph, label %._crit_edge.preheader

.lr.ph:                                           ; preds = %2, %.lr.ph
  %indvars.iv = phi i64 [ %indvars.iv.next, %.lr.ph ], [ 1, %2 ]
  %.047 = phi i32 [ %43, %.lr.ph ], [ %22, %2 ]
  %43 = add nsw i32 %.047, 1
  %44 = load float, ptr %5, align 4, !tbaa !151
  %45 = fpext float %44 to double
  %46 = fmul double %45, 0x3FE6666666666666
  %47 = fptrunc double %46 to float
  %48 = load float, ptr %0, align 4, !tbaa !57
  %49 = load float, ptr %3, align 4, !tbaa !57
  %50 = load float, ptr %11, align 4, !tbaa !57
  %51 = load float, ptr %9, align 4, !tbaa !57
  %52 = fmul float %50, %51
  %53 = tail call float @llvm.fmuladd.f32(float %48, float %49, float %52)
  %54 = load float, ptr %17, align 4, !tbaa !57
  %55 = load float, ptr %15, align 4, !tbaa !57
  %56 = tail call noundef float @llvm.fmuladd.f32(float %54, float %55, float %53)
  %57 = sitofp i32 %43 to float
  %58 = fneg float %44
  %59 = tail call noundef float @llvm.fmuladd.f32(float %58, float %57, float %56)
  %60 = fdiv float %59, %47
  %61 = fmul float %60, %60
  %62 = fpext float %61 to double
  %63 = fmul double %62, -5.000000e-01
  %64 = tail call double @exp(double noundef %63) #26, !tbaa !56
  %65 = fmul double %64, 0x3FE23CC3C0000000
  %66 = fptrunc double %65 to float
  %67 = getelementptr inbounds nuw i32, ptr %39, i64 %indvars.iv
  store i32 %43, ptr %67, align 4, !tbaa !56
  %68 = getelementptr inbounds nuw float, ptr %37, i64 %indvars.iv
  store float %66, ptr %68, align 4, !tbaa !57
  %indvars.iv.next = add nuw nsw i64 %indvars.iv, 1
  %69 = load float, ptr %40, align 8, !tbaa !117
  %70 = fcmp olt float %69, %66
  br i1 %70, label %.lr.ph, label %._crit_edge.loopexit, !llvm.loop !479

._crit_edge.loopexit:                             ; preds = %.lr.ph
  %71 = and i64 %indvars.iv, 4294967295
  br label %._crit_edge.preheader

._crit_edge.preheader:                            ; preds = %._crit_edge.loopexit, %2
  %indvars.iv49.ph = phi i64 [ %71, %._crit_edge.loopexit ], [ 0, %2 ]
  br label %._crit_edge

._crit_edge:                                      ; preds = %._crit_edge.preheader, %._crit_edge
  %indvars.iv49 = phi i64 [ %indvars.iv.next50, %._crit_edge ], [ %indvars.iv49.ph, %._crit_edge.preheader ]
  %.1 = phi i32 [ %72, %._crit_edge ], [ %22, %._crit_edge.preheader ]
  %72 = add nsw i32 %.1, -1
  %73 = load float, ptr %5, align 4, !tbaa !151
  %74 = fpext float %73 to double
  %75 = fmul double %74, 0x3FE6666666666666
  %76 = fptrunc double %75 to float
  %77 = load float, ptr %0, align 4, !tbaa !57
  %78 = load float, ptr %3, align 4, !tbaa !57
  %79 = load float, ptr %11, align 4, !tbaa !57
  %80 = load float, ptr %9, align 4, !tbaa !57
  %81 = fmul float %79, %80
  %82 = tail call float @llvm.fmuladd.f32(float %77, float %78, float %81)
  %83 = load float, ptr %17, align 4, !tbaa !57
  %84 = load float, ptr %15, align 4, !tbaa !57
  %85 = tail call noundef float @llvm.fmuladd.f32(float %83, float %84, float %82)
  %86 = sitofp i32 %72 to float
  %87 = fneg float %73
  %88 = tail call noundef float @llvm.fmuladd.f32(float %87, float %86, float %85)
  %89 = fdiv float %88, %76
  %90 = fmul float %89, %89
  %91 = fpext float %90 to double
  %92 = fmul double %91, -5.000000e-01
  %93 = tail call double @exp(double noundef %92) #26, !tbaa !56
  %94 = fmul double %93, 0x3FE23CC3C0000000
  %95 = fptrunc double %94 to float
  %96 = getelementptr inbounds nuw i32, ptr %39, i64 %indvars.iv49
  store i32 %72, ptr %96, align 4, !tbaa !56
  %97 = getelementptr inbounds nuw float, ptr %37, i64 %indvars.iv49
  store float %95, ptr %97, align 4, !tbaa !57
  %indvars.iv.next50 = add nuw nsw i64 %indvars.iv49, 1
  %98 = load float, ptr %40, align 8, !tbaa !117
  %99 = fcmp olt float %98, %95
  br i1 %99, label %._crit_edge, label %100, !llvm.loop !480

100:                                              ; preds = %._crit_edge
  %101 = trunc nuw nsw i64 %indvars.iv49 to i32
  ret i32 %101
}